target datalayout = "e-m:e-p270:32:32-p271:32:32-p272:64:64-i64:64-i128:128-f80:128-n8:16:32:64-S128"
target triple = "x86_64-pc-linux-gnu"

%struct.read_file_data = type { i32, i64, ptr, i32, i8, i32, %union.anon }
%union.anon = type { [1 x i32] }

@.str.10 = private unnamed_addr constant [23 x i8] c"Error seeking in stdin\00", align 1
@.str.11 = private unnamed_addr constant [22 x i8] c"Error seeking in '%s'\00", align 1
@.str.12 = private unnamed_addr constant [22 x i8] c"Error seeking in '%S'\00", align 1

; Function Attrs: nounwind uwtable
define internal i64 @file_seek(ptr noundef %0, ptr noundef %1, i64 noundef %2, i32 noundef %3) #0 {
  %5 = alloca i64, align 8
  %6 = alloca ptr, align 8
  %7 = alloca ptr, align 8
  %8 = alloca i64, align 8
  %9 = alloca i32, align 4
  %10 = alloca ptr, align 8
  %11 = alloca i64, align 8
  store ptr %0, ptr %6, align 8
  store ptr %1, ptr %7, align 8
  store i64 %2, ptr %8, align 8
  store i32 %3, ptr %9, align 4
  %12 = load ptr, ptr %7, align 8
  store ptr %12, ptr %10, align 8
  %13 = load ptr, ptr %10, align 8
  %14 = getelementptr inbounds %struct.read_file_data, ptr %13, i32 0, i32 0
  %15 = load i32, ptr %14, align 8
  %16 = load i64, ptr %8, align 8
  %17 = load i32, ptr %9, align 4
  %18 = call i64 @lseek(i32 noundef %15, i64 noundef %16, i32 noundef %17) #9
  store i64 %18, ptr %11, align 8
  %19 = load i64, ptr %11, align 8
  %20 = icmp sge i64 %19, 0
  br i1 %20, label %21, label %23

21:                                               ; preds = %4
  %22 = load i64, ptr %11, align 8
  store i64 %22, ptr %5, align 8
  br label %53

23:                                               ; preds = %4
  %24 = load ptr, ptr %10, align 8
  %25 = getelementptr inbounds %struct.read_file_data, ptr %24, i32 0, i32 5
  %26 = load i32, ptr %25, align 8
  %27 = icmp eq i32 %26, 0
  br i1 %27, label %28, label %32

28:                                               ; preds = %23
  %29 = load ptr, ptr %6, align 8
  %30 = call ptr @__errno_location() #10
  %31 = load i32, ptr %30, align 4
  call void (ptr, i32, ptr, ...) @archive_set_error(ptr noundef %29, i32 noundef %31, ptr noundef @.str.10)
  br label %52

32:                                               ; preds = %23
  %33 = load ptr, ptr %10, align 8
  %34 = getelementptr inbounds %struct.read_file_data, ptr %33, i32 0, i32 5
  %35 = load i32, ptr %34, align 8
  %36 = icmp eq i32 %35, 1
  br i1 %36, label %37, label %44

37:                                               ; preds = %32
  %38 = load ptr, ptr %6, align 8
  %39 = call ptr @__errno_location() #10
  %40 = load i32, ptr %39, align 4
  %41 = load ptr, ptr %10, align 8
  %42 = getelementptr inbounds %struct.read_file_data, ptr %41, i32 0, i32 6
  %43 = getelementptr inbounds [1 x i8], ptr %42, i64 0, i64 0
  call void (ptr, i32, ptr, ...) @archive_set_error(ptr noundef %38, i32 noundef %40, ptr noundef @.str.11, ptr noundef %43)
  br label %51

44:                                               ; preds = %32
  %45 = load ptr, ptr %6, align 8
  %46 = call ptr @__errno_location() #10
  %47 = load i32, ptr %46, align 4
  %48 = load ptr, ptr %10, align 8
  %49 = getelementptr inbounds %struct.read_file_data, ptr %48, i32 0, i32 6
  %50 = getelementptr inbounds [1 x i32], ptr %49, i64 0, i64 0
  call void (ptr, i32, ptr, ...) @archive_set_error(ptr noundef %45, i32 noundef %47, ptr noundef @.str.12, ptr noundef %50)
  br label %51

51:                                               ; preds = %44, %37
  br label %52

52:                                               ; preds = %51, %28
  store i64 -30, ptr %5, align 8
  br label %53

53:                                               ; preds = %52, %21
  %54 = load i64, ptr %5, align 8
  ret i64 %54
}