; Function Attrs: nounwind uwtable
define internal range(i64 -30, -9223372036854775808) i64 @file_seek(ptr noundef %0, ptr noundef %1, i64 noundef %2, i32 noundef %3) #0 {
  %5 = load i32, ptr %1, align 8
  %6 = tail call i64 @lseek(i32 noundef %5, i64 noundef %2, i32 noundef %3) #14
  %7 = icmp sgt i64 %6, -1
  br i1 %7, label %18, label %8

8:                                                ; preds = %4
  %9 = getelementptr inbounds nuw i8, ptr %1, i64 32
  %10 = load i32, ptr %9, align 8
  %11 = tail call ptr @__errno_location() #17
  %12 = load i32, ptr %11, align 4
  switch i32 %10, label %16 [
    i32 0, label %13
    i32 1, label %14
  ]

13:                                               ; preds = %8
  tail call void (ptr, i32, ptr, ...) @archive_set_error(ptr noundef %0, i32 noundef %12, ptr noundef nonnull @.str.10) #14
  br label %18

14:                                               ; preds = %8
  %15 = getelementptr inbounds nuw i8, ptr %1, i64 36
  tail call void (ptr, i32, ptr, ...) @archive_set_error(ptr noundef %0, i32 noundef %12, ptr noundef nonnull @.str.11, ptr noundef nonnull %15) #14
  br label %18

16:                                               ; preds = %8
  %17 = getelementptr inbounds nuw i8, ptr %1, i64 36
  tail call void (ptr, i32, ptr, ...) @archive_set_error(ptr noundef %0, i32 noundef %12, ptr noundef nonnull @.str.12, ptr noundef nonnull %17) #14
  br label %18

18:                                               ; preds = %13, %16, %14, %4
  %.0 = phi i64 [ %6, %4 ], [ -30, %14 ], [ -30, %16 ], [ -30, %13 ]
  ret i64 %.0
}